target datalayout = "e-m:e-p270:32:32-p271:32:32-p272:64:64-i64:64-i128:128-f80:128-n8:16:32:64-S128"
target triple = "x86_64-pc-linux-gnu"

%struct._e_guid_t = type { i32, i16, i16, [8 x i8] }
%struct.dcom_interface_s = type { ptr, ptr, i32, %struct._e_guid_t, %struct._e_guid_t }
%struct.dcom_object_s = type { ptr, ptr, ptr, i32, i64, i64 }
%struct.cba_ldev_s = type { ptr, ptr, ptr, ptr, ptr, ptr, ptr, i32, ptr }

; Function Attrs: nounwind null_pointer_is_valid sspstrong uwtable
define hidden void @cba_ldev_link(ptr noundef %0, ptr noundef %1, ptr noundef %2) #6 {
  %4 = alloca ptr, align 8
  %5 = alloca ptr, align 8
  %6 = alloca ptr, align 8
  store ptr %0, ptr %4, align 8
  store ptr %1, ptr %5, align 8
  store ptr %2, ptr %6, align 8
  %7 = load ptr, ptr %6, align 8
  %8 = getelementptr inbounds nuw %struct.dcom_interface_s, ptr %7, i32 0, i32 0
  %9 = load ptr, ptr %8, align 8
  %10 = load ptr, ptr %5, align 8
  %11 = getelementptr inbounds nuw %struct.cba_ldev_s, ptr %10, i32 0, i32 4
  store ptr %9, ptr %11, align 8
  %12 = load ptr, ptr %5, align 8
  %13 = load ptr, ptr %6, align 8
  %14 = getelementptr inbounds nuw %struct.dcom_interface_s, ptr %13, i32 0, i32 1
  store ptr %12, ptr %14, align 8
  %15 = load ptr, ptr %6, align 8
  %16 = getelementptr inbounds nuw %struct.dcom_interface_s, ptr %15, i32 0, i32 0
  %17 = load ptr, ptr %16, align 8
  %18 = icmp ne ptr %17, null
  br i1 %18, label %19, label %25

19:                                               ; preds = %3
  %20 = load ptr, ptr %5, align 8
  %21 = load ptr, ptr %6, align 8
  %22 = getelementptr inbounds nuw %struct.dcom_interface_s, ptr %21, i32 0, i32 0
  %23 = load ptr, ptr %22, align 8
  %24 = getelementptr inbounds nuw %struct.dcom_object_s, ptr %23, i32 0, i32 2
  store ptr %20, ptr %24, align 8
  br label %25

25:                                               ; preds = %19, %3
  ret void
}