; Function Attrs: mustprogress nofree norecurse nosync nounwind null_pointer_is_valid sspstrong willreturn memory(write, argmem: readwrite, inaccessiblemem: none) uwtable
define hidden void @cba_ldev_link(ptr noundef readnone captures(none) %0, ptr noundef initializes((32, 40)) %1, ptr noundef captures(none) initializes((8, 16)) %2) local_unnamed_addr #4 {
  %4 = load ptr, ptr %2, align 8
  %5 = getelementptr inbounds nuw i8, ptr %1, i64 32
  store ptr %4, ptr %5, align 8
  %6 = getelementptr inbounds nuw i8, ptr %2, i64 8
  store ptr %1, ptr %6, align 8
  %.not = icmp eq ptr %4, null
  br i1 %.not, label %9, label %7

7:                                                ; preds = %3
  %8 = getelementptr inbounds nuw i8, ptr %4, i64 16
  store ptr %1, ptr %8, align 8
  br label %9

9:                                                ; preds = %7, %3
  ret void
}